Certificate:
    Data:
        Version: 3 (0x2)
        Serial Number: 3 (0x3)
        Signature Algorithm: sha256WithRSAEncryption
        Issuer: O=Kong, CN=Kong CA
        Validity
            Not Before: Feb 26 22:30:38 2025 GMT
            Not After : Jun 29 22:30:38 3024 GMT
        Subject: O=Kong, CN=*.us.tp0.konghq.test
        Subject Public Key Info:
            Public Key Algorithm: rsaEncryption
                Public-Key: (2048 bit)
                Modulus:
                    00:cd:0b:cf:c8:c6:ad:9d:de:68:9e:42:57:c2:bd:
                    e5:53:7c:3f:03:0c:54:46:60:16:3e:88:75:4e:1b:
                    66:de:26:d8:5e:4d:6c:f4:f1:43:db:09:2e:4d:2b:
                    af:3b:87:d0:c6:7d:e1:13:66:17:0f:71:a4:c5:3a:
                    d5:c7:7f:75:e0:44:2c:2a:e3:f6:8c:71:8b:df:64:
                    4d:8b:31:cd:3e:e4:87:bc:4c:34:a7:95:5c:63:64:
                    97:fc:e4:48:bd:dd:f2:60:c2:8e:2b:b9:8e:c2:8f:
                    e1:9e:4e:71:a5:ae:c6:23:cf:34:11:84:05:5a:ef:
                    55:89:e7:a6:59:d3:6c:bf:8f:3a:14:94:2d:26:8c:
                    05:02:ac:54:de:a2:3d:5b:30:11:8f:cd:9a:75:a1:
                    39:59:01:55:df:6e:66:21:db:aa:b2:f4:dd:03:a5:
                    c6:8c:4d:c3:2e:75:af:7d:be:36:e9:bc:89:ca:9a:
                    31:59:64:c4:ad:a4:a5:bf:5d:e3:d0:83:47:b5:61:
                    be:18:1c:54:ab:c2:2b:6a:ed:9e:c3:d7:99:b5:c1:
                    51:17:96:a7:08:7f:ab:45:02:ef:7d:a6:3d:6a:fb:
                    9e:99:6e:e9:b6:5d:77:59:f5:3a:7b:1e:1d:49:d8:
                    56:a2:46:1a:31:e4:c0:e4:bf:45:40:6f:7d:11:9f:
                    33:21
                Exponent: 65537 (0x10001)
        X509v3 extensions:
            X509v3 Key Usage: critical
                Digital Signature, Key Encipherment, Key Agreement
            X509v3 Extended Key Usage: 
                TLS Web Server Authentication, TLS Web Client Authentication
            X509v3 Subject Alternative Name: critical
                DNS:*.us.tp0.konghq.test
            X509v3 Subject Key Identifier: 
                46:3D:1A:88:2A:9E:73:86:2C:EF:7E:71:40:16:AF:F5:3A:FA:FE:23
            X509v3 Authority Key Identifier: 
                7C:4C:0C:D7:EA:41:84:A3:59:61:82:A0:CD:45:06:08:8F:24:D9:35
    Signature Algorithm: sha256WithRSAEncryption
    Signature Value:
        88:c4:5c:4d:81:34:00:45:f3:90:66:8e:1a:97:ed:d1:81:51:
        08:9a:9d:1c:db:36:51:b0:63:89:12:79:ff:87:db:96:50:27:
        81:58:13:04:dc:72:88:d8:2d:6f:25:78:cb:a1:32:83:ff:b2:
        af:11:8e:43:89:92:bb:0c:35:bb:4f:b0:ef:cf:bb:40:b5:6b:
        f8:6d:f7:4f:16:54:05:80:6f:dd:31:a7:b6:fd:07:51:69:57:
        13:8b:2a:13:2c:0d:42:a7:ac:64:78:d0:9b:70:f1:e9:2e:75:
        a7:e9:3a:02:8f:8a:2d:a6:b7:f8:df:26:09:6e:49:1b:73:41:
        d6:c7:b7:7d:f3:b3:9c:fe:4c:e4:c7:f5:10:0f:a1:c3:74:72:
        21:f6:e5:04:2e:fc:9d:e5:eb:16:dc:e6:c2:cc:c6:82:2a:c2:
        0a:04:0b:7e:12:e9:e8:c7:6a:69:39:65:c6:1b:c7:d0:fe:35:
        10:87:24:bc:ce:45:fa:1e:c2:e1:99:97:f7:b6:ea:9a:b4:4e:
        cd:82:62:fc:67:6d:fa:0f:0c:28:92:1f:bd:c9:b2:39:23:a8:
        71:60:7b:7f:f2:0b:9e:7a:8b:64:05:66:24:09:be:45:ca:df:
        13:db:4a:f9:01:a8:9e:11:c9:2d:c5:c3:7b:3f:8a:92:54:96:
        ff:f9:97:d5
-----BEGIN CERTIFICATE-----
MIIDYzCCAkugAwIBAgIBAzANBgkqhkiG9w0BAQsFADAhMQ0wCwYDVQQKDARLb25n
MRAwDgYDVQQDDAdLb25nIENBMCAXDTI1MDIyNjIyMzAzOFoYDzMwMjQwNjI5MjIz
MDM4WjAuMQ0wCwYDVQQKDARLb25nMR0wGwYDVQQDDBQqLnVzLnRwMC5rb25naHEu
dGVzdDCCASIwDQYJKoZIhvcNAQEBBQADggEPADCCAQoCggEBAM0Lz8jGrZ3eaJ5C
V8K95VN8PwMMVEZgFj6IdU4bZt4m2F5NbPTxQ9sJLk0rrzuH0MZ94RNmFw9xpMU6
1cd/deBELCrj9oxxi99kTYsxzT7kh7xMNKeVXGNkl/zkSL3d8mDCjiu5jsKP4Z5O
caWuxiPPNBGEBVrvVYnnplnTbL+POhSULSaMBQKsVN6iPVswEY/NmnWhOVkBVd9u
ZiHbqrL03QOlxoxNwy51r32+Num8icqaMVlkxK2kpb9d49CDR7VhvhgcVKvCK2rt
nsPXmbXBUReWpwh/q0UC732mPWr7nplu6bZdd1n1OnseHUnYVqJGGjHkwOS/RUBv
fRGfMyECAwEAAaOBljCBkzAOBgNVHQ8BAf8EBAMCA6gwHQYDVR0lBBYwFAYIKwYB
BQUHAwEGCCsGAQUFBwMCMCIGA1UdEQEB/wQYMBaCFCoudXMudHAwLmtvbmdocS50
ZXN0MB0GA1UdDgQWBBRGPRqIKp5zhizvfnFAFq/1Ovr+IzAfBgNVHSMEGDAWgBR8
TAzX6kGEo1lhgqDNRQYIjyTZNTANBgkqhkiG9w0BAQsFAAOCAQEAiMRcTYE0AEXz
kGaOGpft0YFRCJqdHNs2UbBjiRJ5/4fbllAngVgTBNxyiNgtbyV4y6Eyg/+yrxGO
Q4mSuww1u0+w78+7QLVr+G33TxZUBYBv3TGntv0HUWlXE4sqEywNQqesZHjQm3Dx
6S51p+k6Ao+KLaa3+N8mCW5JG3NB1se3ffOznP5M5Mf1EA+hw3RyIfblBC78neXr
FtzmwszGgirCCgQLfhLp6MdqaTllxhvH0P41EIckvM5F+h7C4ZmX97bqmrROzYJi
/Gdt+g8MKJIfvcmyOSOocWB7f/ILnnqLZAVmJAm+RcrfE9tK+QGonhHJLcXDez+K
klSW//mX1Q==
-----END CERTIFICATE-----
