Certificate:
    Data:
        Version: 3 (0x2)
        Serial Number: 2 (0x2)
        Signature Algorithm: sha256WithRSAEncryption
        Issuer: O=Kong, CN=Kong CA
        Validity
            Not Before: Jan 29 00:18:14 2025 GMT
            Not After : Jun  1 00:18:14 3024 GMT
        Subject: O=Kong, CN=Kong-DP
        Subject Public Key Info:
            Public Key Algorithm: rsaEncryption
                Public-Key: (2048 bit)
                Modulus:
                    00:c5:87:e1:c5:ad:c2:c1:62:8d:4e:f1:0a:9d:1f:
                    30:fe:6d:c0:36:83:03:10:e2:a2:51:9f:f2:96:01:
                    d6:73:06:42:d5:ea:46:88:08:28:20:de:3d:43:09:
                    d4:fe:db:03:b5:a8:87:dd:88:fb:91:f5:75:08:80:
                    1b:db:d1:b9:2f:71:50:b7:bd:f3:4d:8d:ab:f5:68:
                    19:b6:56:66:aa:30:4c:33:74:07:5f:f3:73:d1:c8:
                    78:03:fb:fe:31:73:f4:c9:db:ba:25:29:da:79:40:
                    66:60:64:8b:e0:86:d3:b5:41:51:5d:04:12:90:62:
                    d4:ab:83:f7:54:c7:de:29:90:6e:60:2e:2b:d3:31:
                    64:9c:b8:f8:05:4c:48:03:d0:a3:72:d2:f4:39:fa:
                    6d:2d:a3:51:7a:68:a5:2f:62:14:4d:54:05:20:a9:
                    59:14:ba:b3:0e:46:db:5e:89:c8:f7:c8:80:8f:7c:
                    e3:ed:0f:79:14:4d:b4:7a:00:79:d7:53:44:0d:02:
                    c8:d6:7a:54:3a:31:8a:87:ef:69:27:a8:3e:be:d6:
                    92:2b:1e:aa:a5:d4:a1:19:a9:3d:0d:8e:ff:21:c1:
                    c7:af:00:c6:18:fd:07:44:c0:42:59:d5:62:56:ae:
                    90:52:07:e6:20:7c:60:e4:9c:43:ca:8b:9e:04:ab:
                    30:a1
                Exponent: 65537 (0x10001)
        X509v3 extensions:
            X509v3 Key Usage: critical
                Digital Signature, Key Encipherment
            X509v3 Extended Key Usage: 
                TLS Web Client Authentication
            X509v3 Subject Key Identifier: 
                1F:4D:32:CD:06:10:5A:41:DC:10:75:5B:38:B5:34:AF:D5:FE:2C:0C
            X509v3 Authority Key Identifier: 
                7C:4C:0C:D7:EA:41:84:A3:59:61:82:A0:CD:45:06:08:8F:24:D9:35
    Signature Algorithm: sha256WithRSAEncryption
    Signature Value:
        0e:11:60:8e:3b:4c:29:56:9a:02:2f:a8:ac:58:8f:a0:66:d8:
        b7:89:2d:ee:45:11:08:d2:b9:ec:69:d1:30:6d:b3:9b:14:43:
        fc:71:f9:9d:54:70:2f:af:aa:6a:9b:4b:9c:9d:d4:75:80:c7:
        0f:3f:d8:87:8f:e2:32:97:69:e5:95:e6:9e:25:be:22:34:06:
        f2:83:02:bc:7a:f1:cd:fb:b8:b6:5d:20:ff:8d:b3:bb:e1:67:
        a9:f7:59:80:c4:a9:05:22:66:e9:c8:28:03:1a:5a:6a:67:ae:
        41:9f:0c:43:53:61:52:7e:e5:1d:34:f7:d9:0c:4a:62:e7:55:
        76:94:1a:06:c1:66:f9:a7:87:0d:f4:22:df:cc:32:c7:01:8d:
        d4:27:4a:90:0f:b5:72:1a:b7:62:20:d3:ff:de:6f:1f:54:44:
        72:c3:a3:f1:82:b2:b3:22:60:72:8c:5b:85:92:16:5e:56:76:
        57:00:30:e3:96:1b:cd:3e:9e:36:29:c6:0c:c6:65:a7:6d:fe:
        e0:34:d5:04:2e:d0:05:7b:7e:06:54:f5:6b:55:40:10:0c:5f:
        cd:41:29:13:d1:89:9c:55:a0:d9:76:ba:1c:bf:1f:25:58:8a:
        7e:f5:52:66:d1:da:9e:40:21:3c:5e:50:5e:3e:a9:5a:8d:89:
        a5:00:3f:d0
-----BEGIN CERTIFICATE-----
MIIDJjCCAg6gAwIBAgIBAjANBgkqhkiG9w0BAQsFADAhMQ0wCwYDVQQKDARLb25n
MRAwDgYDVQQDDAdLb25nIENBMCAXDTI1MDEyOTAwMTgxNFoYDzMwMjQwNjAxMDAx
ODE0WjAhMQ0wCwYDVQQKDARLb25nMRAwDgYDVQQDDAdLb25nLURQMIIBIjANBgkq
hkiG9w0BAQEFAAOCAQ8AMIIBCgKCAQEAxYfhxa3CwWKNTvEKnR8w/m3ANoMDEOKi
UZ/ylgHWcwZC1epGiAgoIN49QwnU/tsDtaiH3Yj7kfV1CIAb29G5L3FQt73zTY2r
9WgZtlZmqjBMM3QHX/Nz0ch4A/v+MXP0ydu6JSnaeUBmYGSL4IbTtUFRXQQSkGLU
q4P3VMfeKZBuYC4r0zFknLj4BUxIA9CjctL0OfptLaNRemilL2IUTVQFIKlZFLqz
DkbbXonI98iAj3zj7Q95FE20egB511NEDQLI1npUOjGKh+9pJ6g+vtaSKx6qpdSh
Gak9DY7/IcHHrwDGGP0HRMBCWdViVq6QUgfmIHxg5JxDyoueBKswoQIDAQABo2cw
ZTAOBgNVHQ8BAf8EBAMCBaAwEwYDVR0lBAwwCgYIKwYBBQUHAwIwHQYDVR0OBBYE
FB9NMs0GEFpB3BB1Wzi1NK/V/iwMMB8GA1UdIwQYMBaAFHxMDNfqQYSjWWGCoM1F
BgiPJNk1MA0GCSqGSIb3DQEBCwUAA4IBAQAOEWCOO0wpVpoCL6isWI+gZti3iS3u
RREI0rnsadEwbbObFEP8cfmdVHAvr6pqm0ucndR1gMcPP9iHj+Iyl2nlleaeJb4i
NAbygwK8evHN+7i2XSD/jbO74Wep91mAxKkFImbpyCgDGlpqZ65BnwxDU2FSfuUd
NPfZDEpi51V2lBoGwWb5p4cN9CLfzDLHAY3UJ0qQD7VyGrdiINP/3m8fVERyw6Px
grKzImByjFuFkhZeVnZXADDjlhvNPp42KcYMxmWnbf7gNNUELtAFe34GVPVrVUAQ
DF/NQSkT0YmcVaDZdrocvx8lWIp+9VJm0dqeQCE8XlBePqlajYmlAD/Q
-----END CERTIFICATE-----
